target datalayout = "e-m:e-p270:32:32-p271:32:32-p272:64:64-i64:64-i128:128-f80:128-n8:16:32:64-S128"
target triple = "x86_64-unknown-linux-gnu"

%struct.AudiodevJackPerDirectionOptions = type { i8, i8, i8, i8, i8, i32, i8, i32, i8, i32, i8, i32, i8, i32, ptr, ptr, ptr, i8, i8, i8, i8 }

@.str.17 = private unnamed_addr constant [12 x i8] c"server-name\00", align 1
@.str.18 = private unnamed_addr constant [12 x i8] c"client-name\00", align 1
@.str.19 = private unnamed_addr constant [14 x i8] c"connect-ports\00", align 1
@.str.20 = private unnamed_addr constant [13 x i8] c"start-server\00", align 1
@.str.21 = private unnamed_addr constant [11 x i8] c"exact-name\00", align 1

; Function Attrs: nounwind sspstrong uwtable
define dso_local zeroext i1 @visit_type_AudiodevJackPerDirectionOptions_members(ptr noundef %v, ptr noundef %obj, ptr noundef %errp) #0 {
entry:
  %retval = alloca i1, align 1
  %v.addr = alloca ptr, align 8
  %obj.addr = alloca ptr, align 8
  %errp.addr = alloca ptr, align 8
  %has_server_name = alloca i8, align 1
  %has_client_name = alloca i8, align 1
  %has_connect_ports = alloca i8, align 1
  store ptr %v, ptr %v.addr, align 8
  store ptr %obj, ptr %obj.addr, align 8
  store ptr %errp, ptr %errp.addr, align 8
  %0 = load ptr, ptr %obj.addr, align 8
  %server_name = getelementptr inbounds %struct.AudiodevJackPerDirectionOptions, ptr %0, i32 0, i32 14
  %1 = load ptr, ptr %server_name, align 8
  %tobool = icmp ne ptr %1, null
  %lnot = xor i1 %tobool, true
  %lnot1 = xor i1 %lnot, true
  %frombool = zext i1 %lnot1 to i8
  store i8 %frombool, ptr %has_server_name, align 1
  %2 = load ptr, ptr %obj.addr, align 8
  %client_name = getelementptr inbounds %struct.AudiodevJackPerDirectionOptions, ptr %2, i32 0, i32 15
  %3 = load ptr, ptr %client_name, align 8
  %tobool2 = icmp ne ptr %3, null
  %lnot3 = xor i1 %tobool2, true
  %lnot4 = xor i1 %lnot3, true
  %frombool5 = zext i1 %lnot4 to i8
  store i8 %frombool5, ptr %has_client_name, align 1
  %4 = load ptr, ptr %obj.addr, align 8
  %connect_ports = getelementptr inbounds %struct.AudiodevJackPerDirectionOptions, ptr %4, i32 0, i32 16
  %5 = load ptr, ptr %connect_ports, align 8
  %tobool6 = icmp ne ptr %5, null
  %lnot7 = xor i1 %tobool6, true
  %lnot8 = xor i1 %lnot7, true
  %frombool9 = zext i1 %lnot8 to i8
  store i8 %frombool9, ptr %has_connect_ports, align 1
  %6 = load ptr, ptr %v.addr, align 8
  %7 = load ptr, ptr %obj.addr, align 8
  %8 = load ptr, ptr %errp.addr, align 8
  %call = call zeroext i1 @visit_type_AudiodevPerDirectionOptions_members(ptr noundef %6, ptr noundef %7, ptr noundef %8)
  br i1 %call, label %if.end, label %if.then

if.then:                                          ; preds = %entry
  store i1 false, ptr %retval, align 1
  br label %return

if.end:                                           ; preds = %entry
  %9 = load ptr, ptr %v.addr, align 8
  %call10 = call zeroext i1 @visit_optional(ptr noundef %9, ptr noundef @.str.17, ptr noundef %has_server_name)
  br i1 %call10, label %if.then11, label %if.end16

if.then11:                                        ; preds = %if.end
  %10 = load ptr, ptr %v.addr, align 8
  %11 = load ptr, ptr %obj.addr, align 8
  %server_name12 = getelementptr inbounds %struct.AudiodevJackPerDirectionOptions, ptr %11, i32 0, i32 14
  %12 = load ptr, ptr %errp.addr, align 8
  %call13 = call zeroext i1 @visit_type_str(ptr noundef %10, ptr noundef @.str.17, ptr noundef %server_name12, ptr noundef %12)
  br i1 %call13, label %if.end15, label %if.then14

if.then14:                                        ; preds = %if.then11
  store i1 false, ptr %retval, align 1
  br label %return

if.end15:                                         ; preds = %if.then11
  br label %if.end16

if.end16:                                         ; preds = %if.end15, %if.end
  %13 = load ptr, ptr %v.addr, align 8
  %call17 = call zeroext i1 @visit_optional(ptr noundef %13, ptr noundef @.str.18, ptr noundef %has_client_name)
  br i1 %call17, label %if.then18, label %if.end23

if.then18:                                        ; preds = %if.end16
  %14 = load ptr, ptr %v.addr, align 8
  %15 = load ptr, ptr %obj.addr, align 8
  %client_name19 = getelementptr inbounds %struct.AudiodevJackPerDirectionOptions, ptr %15, i32 0, i32 15
  %16 = load ptr, ptr %errp.addr, align 8
  %call20 = call zeroext i1 @visit_type_str(ptr noundef %14, ptr noundef @.str.18, ptr noundef %client_name19, ptr noundef %16)
  br i1 %call20, label %if.end22, label %if.then21

if.then21:                                        ; preds = %if.then18
  store i1 false, ptr %retval, align 1
  br label %return

if.end22:                                         ; preds = %if.then18
  br label %if.end23

if.end23:                                         ; preds = %if.end22, %if.end16
  %17 = load ptr, ptr %v.addr, align 8
  %call24 = call zeroext i1 @visit_optional(ptr noundef %17, ptr noundef @.str.19, ptr noundef %has_connect_ports)
  br i1 %call24, label %if.then25, label %if.end30

if.then25:                                        ; preds = %if.end23
  %18 = load ptr, ptr %v.addr, align 8
  %19 = load ptr, ptr %obj.addr, align 8
  %connect_ports26 = getelementptr inbounds %struct.AudiodevJackPerDirectionOptions, ptr %19, i32 0, i32 16
  %20 = load ptr, ptr %errp.addr, align 8
  %call27 = call zeroext i1 @visit_type_str(ptr noundef %18, ptr noundef @.str.19, ptr noundef %connect_ports26, ptr noundef %20)
  br i1 %call27, label %if.end29, label %if.then28

if.then28:                                        ; preds = %if.then25
  store i1 false, ptr %retval, align 1
  br label %return

if.end29:                                         ; preds = %if.then25
  br label %if.end30

if.end30:                                         ; preds = %if.end29, %if.end23
  %21 = load ptr, ptr %v.addr, align 8
  %22 = load ptr, ptr %obj.addr, align 8
  %has_start_server = getelementptr inbounds %struct.AudiodevJackPerDirectionOptions, ptr %22, i32 0, i32 17
  %call31 = call zeroext i1 @visit_optional(ptr noundef %21, ptr noundef @.str.20, ptr noundef %has_start_server)
  br i1 %call31, label %if.then32, label %if.end36

if.then32:                                        ; preds = %if.end30
  %23 = load ptr, ptr %v.addr, align 8
  %24 = load ptr, ptr %obj.addr, align 8
  %start_server = getelementptr inbounds %struct.AudiodevJackPerDirectionOptions, ptr %24, i32 0, i32 18
  %25 = load ptr, ptr %errp.addr, align 8
  %call33 = call zeroext i1 @visit_type_bool(ptr noundef %23, ptr noundef @.str.20, ptr noundef %start_server, ptr noundef %25)
  br i1 %call33, label %if.end35, label %if.then34

if.then34:                                        ; preds = %if.then32
  store i1 false, ptr %retval, align 1
  br label %return

if.end35:                                         ; preds = %if.then32
  br label %if.end36

if.end36:                                         ; preds = %if.end35, %if.end30
  %26 = load ptr, ptr %v.addr, align 8
  %27 = load ptr, ptr %obj.addr, align 8
  %has_exact_name = getelementptr inbounds %struct.AudiodevJackPerDirectionOptions, ptr %27, i32 0, i32 19
  %call37 = call zeroext i1 @visit_optional(ptr noundef %26, ptr noundef @.str.21, ptr noundef %has_exact_name)
  br i1 %call37, label %if.then38, label %if.end42

if.then38:                                        ; preds = %if.end36
  %28 = load ptr, ptr %v.addr, align 8
  %29 = load ptr, ptr %obj.addr, align 8
  %exact_name = getelementptr inbounds %struct.AudiodevJackPerDirectionOptions, ptr %29, i32 0, i32 20
  %30 = load ptr, ptr %errp.addr, align 8
  %call39 = call zeroext i1 @visit_type_bool(ptr noundef %28, ptr noundef @.str.21, ptr noundef %exact_name, ptr noundef %30)
  br i1 %call39, label %if.end41, label %if.then40

if.then40:                                        ; preds = %if.then38
  store i1 false, ptr %retval, align 1
  br label %return

if.end41:                                         ; preds = %if.then38
  br label %if.end42

if.end42:                                         ; preds = %if.end41, %if.end36
  store i1 true, ptr %retval, align 1
  br label %return

return:                                           ; preds = %if.end42, %if.then40, %if.then34, %if.then28, %if.then21, %if.then14, %if.then
  %31 = load i1, ptr %retval, align 1
  ret i1 %31
}