; Function Attrs: nounwind sspstrong uwtable
define dso_local noundef zeroext i1 @visit_type_AudiodevJackPerDirectionOptions_members(ptr noundef %v, ptr noundef %obj, ptr noundef %errp) local_unnamed_addr #0 {
entry:
  %has_server_name = alloca i8, align 1
  %has_client_name = alloca i8, align 1
  %has_connect_ports = alloca i8, align 1
  %server_name = getelementptr inbounds nuw i8, ptr %obj, i64 48
  %0 = load ptr, ptr %server_name, align 8
  %tobool = icmp ne ptr %0, null
  %frombool = zext i1 %tobool to i8
  store i8 %frombool, ptr %has_server_name, align 1
  %client_name = getelementptr inbounds nuw i8, ptr %obj, i64 56
  %1 = load ptr, ptr %client_name, align 8
  %tobool2 = icmp ne ptr %1, null
  %frombool5 = zext i1 %tobool2 to i8
  store i8 %frombool5, ptr %has_client_name, align 1
  %connect_ports = getelementptr inbounds nuw i8, ptr %obj, i64 64
  %2 = load ptr, ptr %connect_ports, align 8
  %tobool6 = icmp ne ptr %2, null
  %frombool9 = zext i1 %tobool6 to i8
  store i8 %frombool9, ptr %has_connect_ports, align 1
  %call = tail call zeroext i1 @visit_type_AudiodevPerDirectionOptions_members(ptr noundef %v, ptr noundef %obj, ptr noundef %errp)
  br i1 %call, label %if.end, label %return

if.end:                                           ; preds = %entry
  %call10 = call zeroext i1 @visit_optional(ptr noundef %v, ptr noundef nonnull @.str.17, ptr noundef nonnull %has_server_name) #5
  br i1 %call10, label %if.then11, label %if.end16

if.then11:                                        ; preds = %if.end
  %call13 = call zeroext i1 @visit_type_str(ptr noundef %v, ptr noundef nonnull @.str.17, ptr noundef nonnull %server_name, ptr noundef %errp) #5
  br i1 %call13, label %if.end16, label %return

if.end16:                                         ; preds = %if.then11, %if.end
  %call17 = call zeroext i1 @visit_optional(ptr noundef %v, ptr noundef nonnull @.str.18, ptr noundef nonnull %has_client_name) #5
  br i1 %call17, label %if.then18, label %if.end23

if.then18:                                        ; preds = %if.end16
  %call20 = call zeroext i1 @visit_type_str(ptr noundef %v, ptr noundef nonnull @.str.18, ptr noundef nonnull %client_name, ptr noundef %errp) #5
  br i1 %call20, label %if.end23, label %return

if.end23:                                         ; preds = %if.then18, %if.end16
  %call24 = call zeroext i1 @visit_optional(ptr noundef %v, ptr noundef nonnull @.str.19, ptr noundef nonnull %has_connect_ports) #5
  br i1 %call24, label %if.then25, label %if.end30

if.then25:                                        ; preds = %if.end23
  %call27 = call zeroext i1 @visit_type_str(ptr noundef %v, ptr noundef nonnull @.str.19, ptr noundef nonnull %connect_ports, ptr noundef %errp) #5
  br i1 %call27, label %if.end30, label %return

if.end30:                                         ; preds = %if.then25, %if.end23
  %has_start_server = getelementptr inbounds nuw i8, ptr %obj, i64 72
  %call31 = call zeroext i1 @visit_optional(ptr noundef %v, ptr noundef nonnull @.str.20, ptr noundef nonnull %has_start_server) #5
  br i1 %call31, label %if.then32, label %if.end36

if.then32:                                        ; preds = %if.end30
  %start_server = getelementptr inbounds nuw i8, ptr %obj, i64 73
  %call33 = call zeroext i1 @visit_type_bool(ptr noundef %v, ptr noundef nonnull @.str.20, ptr noundef nonnull %start_server, ptr noundef %errp) #5
  br i1 %call33, label %if.end36, label %return

if.end36:                                         ; preds = %if.then32, %if.end30
  %has_exact_name = getelementptr inbounds nuw i8, ptr %obj, i64 74
  %call37 = call zeroext i1 @visit_optional(ptr noundef %v, ptr noundef nonnull @.str.21, ptr noundef nonnull %has_exact_name) #5
  br i1 %call37, label %if.then38, label %if.end42

if.then38:                                        ; preds = %if.end36
  %exact_name = getelementptr inbounds nuw i8, ptr %obj, i64 75
  %call39 = call zeroext i1 @visit_type_bool(ptr noundef %v, ptr noundef nonnull @.str.21, ptr noundef nonnull %exact_name, ptr noundef %errp) #5
  br i1 %call39, label %if.end42, label %return

if.end42:                                         ; preds = %if.then38, %if.end36
  br label %return

return:                                           ; preds = %if.then38, %if.then32, %if.then25, %if.then18, %if.then11, %entry, %if.end42
  %retval.0 = phi i1 [ true, %if.end42 ], [ false, %entry ], [ false, %if.then11 ], [ false, %if.then18 ], [ false, %if.then25 ], [ false, %if.then32 ], [ false, %if.then38 ]
  ret i1 %retval.0
}